target datalayout = "e-m:e-p270:32:32-p271:32:32-p272:64:64-i64:64-i128:128-f80:128-n8:16:32:64-S128"
target triple = "x86_64-pc-linux-gnu"

; Function Attrs: nounwind uwtable
define i32 @ssl_set_version_bound(i32 noundef %0, i32 noundef %1, ptr noundef %2) #0 {
  %4 = alloca i32, align 4
  %5 = alloca i32, align 4
  %6 = alloca i32, align 4
  %7 = alloca ptr, align 8
  %8 = alloca i32, align 4
  %9 = alloca i32, align 4
  %10 = alloca i32, align 4
  store i32 %0, ptr %5, align 4, !tbaa !85
  store i32 %1, ptr %6, align 4, !tbaa !85
  store ptr %2, ptr %7, align 8, !tbaa !119
  call void @llvm.lifetime.start.p0(i64 4, ptr %8) #9
  call void @llvm.lifetime.start.p0(i64 4, ptr %9) #9
  %11 = load i32, ptr %6, align 4, !tbaa !85
  %12 = icmp eq i32 %11, 0
  br i1 %12, label %13, label %16

13:                                               ; preds = %3
  %14 = load i32, ptr %6, align 4, !tbaa !85
  %15 = load ptr, ptr %7, align 8, !tbaa !119
  store i32 %14, ptr %15, align 4, !tbaa !85
  store i32 1, ptr %4, align 4
  store i32 1, ptr %10, align 4
  br label %74

16:                                               ; preds = %3
  %17 = load i32, ptr %6, align 4, !tbaa !85
  %18 = icmp sge i32 %17, 768
  br i1 %18, label %19, label %22

19:                                               ; preds = %16
  %20 = load i32, ptr %6, align 4, !tbaa !85
  %21 = icmp sle i32 %20, 772
  br label %22

22:                                               ; preds = %19, %16
  %23 = phi i1 [ false, %16 ], [ %21, %19 ]
  %24 = zext i1 %23 to i32
  store i32 %24, ptr %8, align 4, !tbaa !85
  %25 = load i32, ptr %6, align 4, !tbaa !85
  %26 = icmp eq i32 %25, 256
  br i1 %26, label %47, label %27

27:                                               ; preds = %22
  %28 = load i32, ptr %6, align 4, !tbaa !85
  %29 = icmp eq i32 %28, 256
  br i1 %29, label %30, label %31

30:                                               ; preds = %27
  br label %33

31:                                               ; preds = %27
  %32 = load i32, ptr %6, align 4, !tbaa !85
  br label %33

33:                                               ; preds = %31, %30
  %34 = phi i32 [ 65280, %30 ], [ %32, %31 ]
  %35 = icmp sge i32 %34, 65277
  br i1 %35, label %36, label %45

36:                                               ; preds = %33
  %37 = load i32, ptr %6, align 4, !tbaa !85
  %38 = icmp eq i32 %37, 256
  br i1 %38, label %39, label %40

39:                                               ; preds = %36
  br label %42

40:                                               ; preds = %36
  %41 = load i32, ptr %6, align 4, !tbaa !85
  br label %42

42:                                               ; preds = %40, %39
  %43 = phi i32 [ 65280, %39 ], [ %41, %40 ]
  %44 = icmp sle i32 %43, 65279
  br label %45

45:                                               ; preds = %42, %33
  %46 = phi i1 [ false, %33 ], [ %44, %42 ]
  br label %47

47:                                               ; preds = %45, %22
  %48 = phi i1 [ true, %22 ], [ %46, %45 ]
  %49 = zext i1 %48 to i32
  store i32 %49, ptr %9, align 4, !tbaa !85
  %50 = load i32, ptr %8, align 4, !tbaa !85
  %51 = icmp ne i32 %50, 0
  br i1 %51, label %56, label %52

52:                                               ; preds = %47
  %53 = load i32, ptr %9, align 4, !tbaa !85
  %54 = icmp ne i32 %53, 0
  br i1 %54, label %56, label %55

55:                                               ; preds = %52
  store i32 0, ptr %4, align 4
  store i32 1, ptr %10, align 4
  br label %74

56:                                               ; preds = %52, %47
  %57 = load i32, ptr %5, align 4, !tbaa !85
  switch i32 %57, label %58 [
    i32 65536, label %59
    i32 131071, label %66
  ]

58:                                               ; preds = %56
  br label %73

59:                                               ; preds = %56
  %60 = load i32, ptr %8, align 4, !tbaa !85
  %61 = icmp ne i32 %60, 0
  br i1 %61, label %62, label %65

62:                                               ; preds = %59
  %63 = load i32, ptr %6, align 4, !tbaa !85
  %64 = load ptr, ptr %7, align 8, !tbaa !119
  store i32 %63, ptr %64, align 4, !tbaa !85
  br label %65

65:                                               ; preds = %62, %59
  br label %73

66:                                               ; preds = %56
  %67 = load i32, ptr %9, align 4, !tbaa !85
  %68 = icmp ne i32 %67, 0
  br i1 %68, label %69, label %72

69:                                               ; preds = %66
  %70 = load i32, ptr %6, align 4, !tbaa !85
  %71 = load ptr, ptr %7, align 8, !tbaa !119
  store i32 %70, ptr %71, align 4, !tbaa !85
  br label %72

72:                                               ; preds = %69, %66
  br label %73

73:                                               ; preds = %72, %65, %58
  store i32 1, ptr %4, align 4
  store i32 1, ptr %10, align 4
  br label %74

74:                                               ; preds = %73, %55, %13
  call void @llvm.lifetime.end.p0(i64 4, ptr %9) #9
  call void @llvm.lifetime.end.p0(i64 4, ptr %8) #9
  %75 = load i32, ptr %4, align 4
  ret i32 %75
}