; Function Attrs: mustprogress nofree norecurse nosync nounwind willreturn memory(argmem: write) uwtable
define range(i32 0, 2) i32 @ssl_set_version_bound(i32 noundef %0, i32 noundef %1, ptr noundef writeonly captures(none) %2) local_unnamed_addr #7 {
  %4 = icmp eq i32 %1, 0
  br i1 %4, label %.sink.split, label %5

5:                                                ; preds = %3
  %6 = add i32 %1, -768
  %7 = icmp ult i32 %6, 5
  %8 = icmp eq i32 %1, 256
  br i1 %8, label %.thread, label %9

9:                                                ; preds = %5
  %10 = add i32 %1, -65277
  %spec.select = icmp ult i32 %10, 3
  switch i32 %1, label %14 [
    i32 65279, label %.thread
    i32 65278, label %.thread
    i32 65277, label %.thread
    i32 772, label %.thread
    i32 771, label %.thread
    i32 770, label %.thread
    i32 769, label %.thread
    i32 768, label %.thread
  ]

.thread:                                          ; preds = %9, %9, %9, %9, %9, %9, %9, %9, %5
  %11 = phi i1 [ %spec.select, %9 ], [ true, %5 ], [ %spec.select, %9 ], [ %spec.select, %9 ], [ %spec.select, %9 ], [ %spec.select, %9 ], [ %spec.select, %9 ], [ %spec.select, %9 ], [ %spec.select, %9 ]
  switch i32 %0, label %14 [
    i32 65536, label %12
    i32 131071, label %13
  ]

12:                                               ; preds = %.thread
  br i1 %7, label %.sink.split, label %14

13:                                               ; preds = %.thread
  br i1 %11, label %.sink.split, label %14

.sink.split:                                      ; preds = %13, %12, %3
  %.sink = phi i32 [ 0, %3 ], [ %1, %12 ], [ %1, %13 ]
  store i32 %.sink, ptr %2, align 4, !tbaa !101
  br label %14

14:                                               ; preds = %.sink.split, %9, %.thread, %12, %13
  %.0 = phi i32 [ 0, %9 ], [ 1, %13 ], [ 1, %12 ], [ 1, %.thread ], [ 1, %.sink.split ]
  ret i32 %.0
}